; Function Attrs: nounwind uwtable
define internal ptr @object_delitem(ptr readnone captures(none) %0, ptr noundef %1) #0 {
  %3 = alloca ptr, align 8
  %4 = alloca ptr, align 8
  call void @llvm.lifetime.start.p0(i64 8, ptr nonnull %3) #4
  call void @llvm.lifetime.start.p0(i64 8, ptr nonnull %4) #4
  %5 = call i32 (ptr, ptr, ...) @PyArg_ParseTuple(ptr noundef %1, ptr noundef nonnull @.str.48, ptr noundef nonnull %3, ptr noundef nonnull %4) #4
  %.not = icmp eq i32 %5, 0
  br i1 %.not, label %27, label %6

6:                                                ; preds = %2
  %7 = load ptr, ptr %3, align 8, !tbaa !3
  %8 = icmp eq ptr %7, @_Py_NoneStruct
  br i1 %8, label %9, label %10

9:                                                ; preds = %6
  store ptr null, ptr %3, align 8, !tbaa !3
  br label %10

10:                                               ; preds = %6, %9
  %11 = phi ptr [ %7, %6 ], [ null, %9 ]
  %12 = load ptr, ptr %4, align 8, !tbaa !3
  %13 = icmp eq ptr %12, @_Py_NoneStruct
  br i1 %13, label %14, label %15

14:                                               ; preds = %10
  store ptr null, ptr %4, align 8, !tbaa !3
  br label %15

15:                                               ; preds = %10, %14
  %16 = phi ptr [ %12, %10 ], [ null, %14 ]
  %17 = call i32 @PyObject_DelItem(ptr noundef %11, ptr noundef %16) #4
  %18 = icmp eq i32 %17, -1
  %19 = call ptr @PyErr_Occurred() #4
  %.not5 = icmp eq ptr %19, null
  br i1 %18, label %20, label %22

20:                                               ; preds = %15
  br i1 %.not5, label %21, label %27

21:                                               ; preds = %20
  call void @__assert_fail(ptr noundef nonnull @.str.51, ptr noundef nonnull @.str.52, i32 noundef 274, ptr noundef nonnull @__PRETTY_FUNCTION__.object_delitem) #5
  unreachable

22:                                               ; preds = %15
  br i1 %.not5, label %24, label %23

23:                                               ; preds = %22
  call void @__assert_fail(ptr noundef nonnull @.str.53, ptr noundef nonnull @.str.52, i32 noundef 274, ptr noundef nonnull @__PRETTY_FUNCTION__.object_delitem) #5
  unreachable

24:                                               ; preds = %22
  %25 = sext i32 %17 to i64
  %26 = call ptr @PyLong_FromLong(i64 noundef %25) #4
  br label %27

27:                                               ; preds = %24, %20, %2
  %.0 = phi ptr [ null, %2 ], [ %26, %24 ], [ null, %20 ]
  call void @llvm.lifetime.end.p0(i64 8, ptr nonnull %4) #4
  call void @llvm.lifetime.end.p0(i64 8, ptr nonnull %3) #4
  ret ptr %.0
}